; Function Attrs: mustprogress nounwind uwtable
define { <2 x float>, float } @_Z18getRandomDirectionv() local_unnamed_addr #11 {
  %1 = tail call i32 @rand() #27
  %2 = tail call i32 @rand() #27
  %3 = tail call i32 @rand() #27
  %4 = sitofp i32 %3 to float
  %5 = fmul float %4, 0x3E00000000000000
  %6 = fadd float %5, -5.000000e-01
  %7 = insertelement <2 x i32> poison, i32 %1, i64 0
  %8 = insertelement <2 x i32> %7, i32 %2, i64 1
  %9 = sitofp <2 x i32> %8 to <2 x float>
  %10 = fmul <2 x float> %9, <float 0x3E00000000000000, float 0x3E00000000000000>
  %11 = fadd <2 x float> %10, <float -5.000000e-01, float -5.000000e-01>
  %12 = fmul <2 x float> %11, <float 0x3FD3333340000000, float 0x3FD3333340000000>
  %13 = fmul float %6, 0x3FD3333340000000
  %.fca.0.insert.i13 = insertvalue { <2 x float>, float } poison, <2 x float> %12, 0
  %.fca.1.insert.i14 = insertvalue { <2 x float>, float } %.fca.0.insert.i13, float %13, 1
  ret { <2 x float>, float } %.fca.1.insert.i14
}